target datalayout = "e-m:e-p270:32:32-p271:32:32-p272:64:64-i64:64-i128:128-f80:128-n8:16:32:64-S128"
target triple = "x86_64-pc-linux-gnu"

%struct.stat = type { i64, i64, i64, i32, i32, i32, i32, i64, i64, i64, i64, %struct.timespec, %struct.timespec, %struct.timespec, [3 x i64] }
%struct.timespec = type { i64, i64 }

@.str.13 = private unnamed_addr constant [7 x i8] c".ready\00", align 1
@.str.19 = private unnamed_addr constant [27 x i8] c"pg_wal/archive_status/%s%s\00", align 1

; Function Attrs: inlinehint nounwind uwtable
define internal void @StatusFilePath(ptr noundef %0, ptr noundef %1, ptr noundef %2) #7 {
  %4 = alloca ptr, align 8
  %5 = alloca ptr, align 8
  %6 = alloca ptr, align 8
  store ptr %0, ptr %4, align 8
  store ptr %1, ptr %5, align 8
  store ptr %2, ptr %6, align 8
  %7 = load ptr, ptr %4, align 8
  %8 = load ptr, ptr %5, align 8
  %9 = load ptr, ptr %6, align 8
  %10 = call i32 (ptr, i64, ptr, ...) @pg_snprintf(ptr noundef %7, i64 noundef 1024, ptr noundef @.str.19, ptr noundef %8, ptr noundef %9)
  ret void
}

; Function Attrs: nounwind uwtable
define dso_local zeroext i1 @XLogArchiveIsReady(ptr noundef %0) #0 {
  %2 = alloca i1, align 1
  %3 = alloca ptr, align 8
  %4 = alloca [1024 x i8], align 16
  %5 = alloca %struct.stat, align 8
  %6 = alloca i32, align 4
  store ptr %0, ptr %3, align 8
  call void @llvm.lifetime.start.p0(i64 1024, ptr %4) #10
  call void @llvm.lifetime.start.p0(i64 144, ptr %5) #10
  %7 = getelementptr inbounds [1024 x i8], ptr %4, i64 0, i64 0
  %8 = load ptr, ptr %3, align 8
  call void @StatusFilePath(ptr noundef %7, ptr noundef %8, ptr noundef @.str.13)
  %9 = getelementptr inbounds [1024 x i8], ptr %4, i64 0, i64 0
  %10 = call i32 @stat(ptr noundef %9, ptr noundef %5) #10
  %11 = icmp eq i32 %10, 0
  br i1 %11, label %12, label %13

12:                                               ; preds = %1
  store i1 true, ptr %2, align 1
  store i32 1, ptr %6, align 4
  br label %14

13:                                               ; preds = %1
  store i1 false, ptr %2, align 1
  store i32 1, ptr %6, align 4
  br label %14

14:                                               ; preds = %13, %12
  call void @llvm.lifetime.end.p0(i64 144, ptr %5) #10
  call void @llvm.lifetime.end.p0(i64 1024, ptr %4) #10
  %15 = load i1, ptr %2, align 1
  ret i1 %15
}