; Function Attrs: nounwind uwtable
define dso_local noundef zeroext i1 @XLogArchiveIsReady(ptr noundef %0) local_unnamed_addr #0 {
  %2 = alloca [1024 x i8], align 16
  %3 = alloca %struct.stat, align 8
  call void @llvm.lifetime.start.p0(i64 1024, ptr nonnull %2) #11
  call void @llvm.lifetime.start.p0(i64 144, ptr nonnull %3) #11
  %4 = call i32 (ptr, i64, ptr, ...) @pg_snprintf(ptr noundef nonnull %2, i64 noundef 1024, ptr noundef nonnull @.str.19, ptr noundef %0, ptr noundef nonnull @.str.13) #11
  %5 = call i32 @stat(ptr noundef nonnull %2, ptr noundef nonnull %3) #11
  %6 = icmp eq i32 %5, 0
  call void @llvm.lifetime.end.p0(i64 144, ptr nonnull %3) #11
  call void @llvm.lifetime.end.p0(i64 1024, ptr nonnull %2) #11
  ret i1 %6
}